; Function Attrs: mustprogress nounwind uwtable
define internal void @_ZZN7V3Sched14transformForksEP10AstNetlistEN11ForkVisitorD0Ev(ptr noundef nonnull align 8 dereferenceable(56) %0) unnamed_addr #4 align 2 personality ptr @__gxx_personality_v0 {
  invoke void @_ZN15VNUserInUseBase4freeEiRjRb(i32 noundef 1, ptr noundef nonnull align 4 dereferenceable(4) @_ZN12VNUser1InUse12s_userCntGblE, ptr noundef nonnull align 1 dereferenceable(1) @_ZN12VNUser1InUse10s_userBusyE)
          to label %_ZN12VNUser1InUseD2Ev.exit.i unwind label %2

2:                                                ; preds = %1
  %3 = landingpad { ptr, i32 }
          catch ptr null
  %4 = extractvalue { ptr, i32 } %3, 0
  tail call void @__clang_call_terminate(ptr %4) #26
  unreachable

_ZN12VNUser1InUseD2Ev.exit.i:                     ; preds = %1
  store ptr getelementptr inbounds inrange(-16, 3696) ({ [464 x ptr] }, ptr @_ZTV9VNVisitor, i64 0, i32 0, i64 2), ptr %0, align 8
  %5 = getelementptr inbounds i8, ptr %0, i64 8
  invoke void @_ZN9VNDeleter9doDeletesEv(ptr noundef nonnull align 8 dereferenceable(24) %5)
          to label %6 unwind label %9

6:                                                ; preds = %_ZN12VNUser1InUseD2Ev.exit.i
  %7 = load ptr, ptr %5, align 8
  %.not.i.i.i.i.i.i = icmp eq ptr %7, null
  br i1 %.not.i.i.i.i.i.i, label %_ZZN7V3Sched14transformForksEP10AstNetlistEN11ForkVisitorD2Ev.exit, label %8

8:                                                ; preds = %6
  tail call void @_ZdlPv(ptr noundef nonnull %7) #22
  br label %_ZZN7V3Sched14transformForksEP10AstNetlistEN11ForkVisitorD2Ev.exit

9:                                                ; preds = %_ZN12VNUser1InUseD2Ev.exit.i
  %10 = landingpad { ptr, i32 }
          catch ptr null
  %11 = extractvalue { ptr, i32 } %10, 0
  tail call void @__clang_call_terminate(ptr %11) #26
  unreachable

_ZZN7V3Sched14transformForksEP10AstNetlistEN11ForkVisitorD2Ev.exit: ; preds = %6, %8
  tail call void @_ZdlPv(ptr noundef nonnull %0) #22
  ret void
}